target datalayout = "e-m:e-p270:32:32-p271:32:32-p272:64:64-i64:64-i128:128-f80:128-n8:16:32:64-S128"
target triple = "x86_64-pc-linux-gnu"

%struct.AVBSFContext = type { ptr, ptr, ptr, ptr, ptr, %struct.AVRational, %struct.AVRational }
%struct.AVRational = type { i32, i32 }
%struct.EVCFMergeContext = type { ptr, ptr, %struct.EVCParamSets, %struct.EVCParserPoc, %struct.AccessUnitBuffer }
%struct.EVCParamSets = type { [16 x ptr], [64 x ptr] }
%struct.EVCParserPoc = type { i32, i32, i32 }
%struct.AccessUnitBuffer = type { ptr, i64, i32 }

; Function Attrs: nounwind uwtable
define internal void @evc_frame_merge_close(ptr noundef %0) #0 {
  %2 = alloca ptr, align 8
  %3 = alloca ptr, align 8
  store ptr %0, ptr %2, align 8, !tbaa !4
  call void @llvm.lifetime.start.p0(i64 8, ptr %3) #8
  %4 = load ptr, ptr %2, align 8, !tbaa !4
  %5 = getelementptr inbounds nuw %struct.AVBSFContext, ptr %4, i32 0, i32 2
  %6 = load ptr, ptr %5, align 8, !tbaa !9
  store ptr %6, ptr %3, align 8, !tbaa !16
  %7 = load ptr, ptr %3, align 8, !tbaa !16
  %8 = getelementptr inbounds nuw %struct.EVCFMergeContext, ptr %7, i32 0, i32 0
  call void @av_packet_free(ptr noundef %8)
  %9 = load ptr, ptr %3, align 8, !tbaa !16
  %10 = getelementptr inbounds nuw %struct.EVCFMergeContext, ptr %9, i32 0, i32 1
  call void @av_packet_free(ptr noundef %10)
  %11 = load ptr, ptr %3, align 8, !tbaa !16
  %12 = getelementptr inbounds nuw %struct.EVCFMergeContext, ptr %11, i32 0, i32 2
  call void @ff_evc_ps_free(ptr noundef %12)
  %13 = load ptr, ptr %3, align 8, !tbaa !16
  %14 = getelementptr inbounds nuw %struct.EVCFMergeContext, ptr %13, i32 0, i32 4
  %15 = getelementptr inbounds nuw %struct.AccessUnitBuffer, ptr %14, i32 0, i32 2
  store i32 0, ptr %15, align 8, !tbaa !45
  %16 = load ptr, ptr %3, align 8, !tbaa !16
  %17 = getelementptr inbounds nuw %struct.EVCFMergeContext, ptr %16, i32 0, i32 4
  %18 = getelementptr inbounds nuw %struct.AccessUnitBuffer, ptr %17, i32 0, i32 0
  call void @av_freep(ptr noundef %18)
  %19 = load ptr, ptr %3, align 8, !tbaa !16
  %20 = getelementptr inbounds nuw %struct.EVCFMergeContext, ptr %19, i32 0, i32 4
  %21 = getelementptr inbounds nuw %struct.AccessUnitBuffer, ptr %20, i32 0, i32 1
  store i64 0, ptr %21, align 8, !tbaa !33
  call void @llvm.lifetime.end.p0(i64 8, ptr %3) #8
  ret void
}