; Function Attrs: nounwind uwtable
define internal void @evc_frame_merge_close(ptr noundef readonly captures(none) %0) #0 {
  %2 = getelementptr inbounds nuw i8, ptr %0, i64 16
  %3 = load ptr, ptr %2, align 8, !tbaa !4
  tail call void @av_packet_free(ptr noundef %3) #7
  %4 = getelementptr inbounds nuw i8, ptr %3, i64 8
  tail call void @av_packet_free(ptr noundef nonnull %4) #7
  %5 = getelementptr inbounds nuw i8, ptr %3, i64 16
  tail call void @ff_evc_ps_free(ptr noundef nonnull %5) #7
  %6 = getelementptr inbounds nuw i8, ptr %3, i64 672
  %7 = getelementptr inbounds nuw i8, ptr %3, i64 688
  store i32 0, ptr %7, align 8, !tbaa !58
  tail call void @av_freep(ptr noundef nonnull %6) #7
  %8 = getelementptr inbounds nuw i8, ptr %3, i64 680
  store i64 0, ptr %8, align 8, !tbaa !27
  ret void
}